#include <math.h>
#include <stdio.h>
#include <stdlib.h>
#include <string.h>
#include <iostream>
using namespace std;


int p(int a,int m)
{
    int t=0;
    int i;
    if(a%m!=0)
        return 0;
    if((a%m==0)&&(a/m<m)&&(a!=m))
        return 0;
    if(a==m)
        return 1;
    if((a%m==0)&&(a/m>=m))
        {
            for(i=m;i<=a/m;i++)
            {t=t+p(a/m,i);}
            return t;
        }
}

int main()
{   int n;
    cin>>n;
    int i;
    int x;
    int j;
    int num=0;
    for(i=0;i<n;i++)
   {
          cin>>x;
          for(j=2;j<=x;j++)
          {
              num=num+p(x,j);
          }
          cout<<num<<endl;
          num=0;
   }

    return 0;
}
